; Function Attrs: nofree nounwind memory(readwrite, inaccessiblemem: none) uwtable
define dso_local noundef ptr @str_trim(ptr noundef %0) local_unnamed_addr #13 {
  %2 = tail call i64 @strlen(ptr noundef nonnull dereferenceable(1) %0) #20
  %.not10.i = icmp eq i64 %2, 0
  br i1 %.not10.i, label %str_trim_end.exit.preheader, label %.lr.ph.preheader.i

.lr.ph.preheader.i:                               ; preds = %1
  %3 = getelementptr inbounds i8, ptr %0, i64 %2
  br label %.lr.ph.i

.lr.ph.i:                                         ; preds = %5, %.lr.ph.preheader.i
  %.pn12.i = phi ptr [ %.013.i, %5 ], [ %3, %.lr.ph.preheader.i ]
  %.0711.i = phi i64 [ %6, %5 ], [ %2, %.lr.ph.preheader.i ]
  %.013.i = getelementptr inbounds i8, ptr %.pn12.i, i64 -1
  %4 = load i8, ptr %.013.i, align 1
  switch i8 %4, label %7 [
    i8 32, label %5
    i8 9, label %5
    i8 10, label %5
    i8 13, label %5
  ]

5:                                                ; preds = %.lr.ph.i, %.lr.ph.i, %.lr.ph.i, %.lr.ph.i
  %6 = add i64 %.0711.i, -1
  %.not.i = icmp eq i64 %6, 0
  br i1 %.not.i, label %str_trim_end.exit.preheader, label %.lr.ph.i, !llvm.loop !20

7:                                                ; preds = %.lr.ph.i
  store i8 0, ptr %.pn12.i, align 1
  br label %str_trim_end.exit.preheader

str_trim_end.exit.preheader:                      ; preds = %5, %1, %7
  br label %str_trim_end.exit

str_trim_end.exit:                                ; preds = %str_trim_end.exit.preheader, %9
  %.0.i = phi ptr [ %10, %9 ], [ %0, %str_trim_end.exit.preheader ]
  %8 = load i8, ptr %.0.i, align 1
  switch i8 %8, label %str_trim_start.exit [
    i8 13, label %9
    i8 32, label %9
    i8 9, label %9
    i8 10, label %9
  ]

9:                                                ; preds = %str_trim_end.exit, %str_trim_end.exit, %str_trim_end.exit, %str_trim_end.exit
  %10 = getelementptr inbounds i8, ptr %.0.i, i64 1
  br label %str_trim_end.exit, !llvm.loop !21

str_trim_start.exit:                              ; preds = %str_trim_end.exit
  ret ptr %.0.i
}